target datalayout = "e-m:e-p270:32:32-p271:32:32-p272:64:64-i64:64-i128:128-f80:128-n8:16:32:64-S128"
target triple = "x86_64-pc-linux-gnu"

%struct.lean_object = type { i32, i32 }

; Function Attrs: alwaysinline nounwind uwtable
define internal void @lean_dec_ref(ptr noundef %0) #1 {
  %2 = alloca ptr, align 8
  store ptr %0, ptr %2, align 8, !tbaa !8
  %3 = load ptr, ptr %2, align 8, !tbaa !8
  %4 = getelementptr inbounds nuw %struct.lean_object, ptr %3, i32 0, i32 0
  %5 = load i32, ptr %4, align 4, !tbaa !21
  %6 = icmp sgt i32 %5, 1
  %7 = zext i1 %6 to i32
  %8 = sext i32 %7 to i64
  %9 = call i64 @llvm.expect.i64(i64 %8, i64 1)
  %10 = icmp ne i64 %9, 0
  br i1 %10, label %11, label %16

11:                                               ; preds = %1
  %12 = load ptr, ptr %2, align 8, !tbaa !8
  %13 = getelementptr inbounds nuw %struct.lean_object, ptr %12, i32 0, i32 0
  %14 = load i32, ptr %13, align 4, !tbaa !21
  %15 = add i32 %14, -1
  store i32 %15, ptr %13, align 4, !tbaa !21
  br label %24

16:                                               ; preds = %1
  %17 = load ptr, ptr %2, align 8, !tbaa !8
  %18 = getelementptr inbounds nuw %struct.lean_object, ptr %17, i32 0, i32 0
  %19 = load i32, ptr %18, align 4, !tbaa !21
  %20 = icmp ne i32 %19, 0
  br i1 %20, label %21, label %23

21:                                               ; preds = %16
  %22 = load ptr, ptr %2, align 8, !tbaa !8
  call void @lean_dec_ref_cold(ptr noundef %22)
  br label %23

23:                                               ; preds = %21, %16
  br label %24

24:                                               ; preds = %23, %11
  ret void
}

; Function Attrs: alwaysinline nounwind uwtable
define internal zeroext i1 @lean_is_scalar(ptr noundef %0) #1 {
  %2 = alloca ptr, align 8
  store ptr %0, ptr %2, align 8, !tbaa !8
  %3 = load ptr, ptr %2, align 8, !tbaa !8
  %4 = ptrtoint ptr %3 to i64
  %5 = and i64 %4, 1
  %6 = icmp eq i64 %5, 1
  ret i1 %6
}

; Function Attrs: inlinehint nounwind uwtable
define internal zeroext i8 @lean_uint32_dec_eq(i32 noundef %0, i32 noundef %1) #0 {
  %3 = alloca i32, align 4
  %4 = alloca i32, align 4
  store i32 %0, ptr %3, align 4, !tbaa !4
  store i32 %1, ptr %4, align 4, !tbaa !4
  %5 = load i32, ptr %3, align 4, !tbaa !4
  %6 = load i32, ptr %4, align 4, !tbaa !4
  %7 = icmp eq i32 %5, %6
  %8 = zext i1 %7 to i32
  %9 = trunc i32 %8 to i8
  ret i8 %9
}

; Function Attrs: alwaysinline nounwind uwtable
define internal void @lean_dec(ptr noundef %0) #1 {
  %2 = alloca ptr, align 8
  store ptr %0, ptr %2, align 8, !tbaa !8
  %3 = load ptr, ptr %2, align 8, !tbaa !8
  %4 = call zeroext i1 @lean_is_scalar(ptr noundef %3)
  br i1 %4, label %7, label %5

5:                                                ; preds = %1
  %6 = load ptr, ptr %2, align 8, !tbaa !8
  call void @lean_dec_ref(ptr noundef %6)
  br label %7

7:                                                ; preds = %5, %1
  ret void
}

; Function Attrs: inlinehint nounwind uwtable
define internal ptr @lean_box(i64 noundef %0) #0 {
  %2 = alloca i64, align 8
  store i64 %0, ptr %2, align 8, !tbaa !12
  %3 = load i64, ptr %2, align 8, !tbaa !12
  %4 = shl i64 %3, 1
  %5 = or i64 %4, 1
  %6 = inttoptr i64 %5 to ptr
  ret ptr %6
}

; Function Attrs: inlinehint nounwind uwtable
define internal zeroext i8 @lean_uint32_dec_le(i32 noundef %0, i32 noundef %1) #0 {
  %3 = alloca i32, align 4
  %4 = alloca i32, align 4
  store i32 %0, ptr %3, align 4, !tbaa !4
  store i32 %1, ptr %4, align 4, !tbaa !4
  %5 = load i32, ptr %3, align 4, !tbaa !4
  %6 = load i32, ptr %4, align 4, !tbaa !4
  %7 = icmp ule i32 %5, %6
  %8 = zext i1 %7 to i32
  %9 = trunc i32 %8 to i8
  ret i8 %9
}

; Function Attrs: nounwind uwtable
define zeroext i8 @l_Lake_Toml_unquotedKeyFn___lambda__1(i32 noundef %0) #2 {
  %2 = alloca i8, align 1
  %3 = alloca i32, align 4
  %4 = alloca ptr, align 8
  %5 = alloca ptr, align 8
  %6 = alloca i32, align 4
  %7 = alloca i8, align 1
  %8 = alloca i32, align 4
  %9 = alloca i8, align 1
  %10 = alloca ptr, align 8
  %11 = alloca i32, align 4
  %12 = alloca i32, align 4
  %13 = alloca i8, align 1
  %14 = alloca ptr, align 8
  %15 = alloca i8, align 1
  %16 = alloca i32, align 4
  %17 = alloca i8, align 1
  %18 = alloca i32, align 4
  %19 = alloca i8, align 1
  %20 = alloca ptr, align 8
  %21 = alloca i32, align 4
  %22 = alloca i8, align 1
  %23 = alloca ptr, align 8
  %24 = alloca i8, align 1
  %25 = alloca i8, align 1
  %26 = alloca i32, align 4
  %27 = alloca i8, align 1
  %28 = alloca i32, align 4
  %29 = alloca i8, align 1
  %30 = alloca i8, align 1
  %31 = alloca i32, align 4
  %32 = alloca i8, align 1
  %33 = alloca ptr, align 8
  %34 = alloca i32, align 4
  %35 = alloca i8, align 1
  %36 = alloca ptr, align 8
  %37 = alloca i8, align 1
  store i32 %0, ptr %3, align 4, !tbaa !4
  br label %38

38:                                               ; preds = %1
  call void @llvm.lifetime.start.p0(i64 8, ptr %4) #7
  call void @llvm.lifetime.start.p0(i64 8, ptr %5) #7
  call void @llvm.lifetime.start.p0(i64 4, ptr %6) #7
  call void @llvm.lifetime.start.p0(i64 1, ptr %7) #7
  store i32 65, ptr %6, align 4, !tbaa !4
  %39 = load i32, ptr %6, align 4, !tbaa !4
  %40 = load i32, ptr %3, align 4, !tbaa !4
  %41 = call zeroext i8 @lean_uint32_dec_le(i32 noundef %39, i32 noundef %40)
  store i8 %41, ptr %7, align 1, !tbaa !14
  %42 = load i8, ptr %7, align 1, !tbaa !14
  %43 = zext i8 %42 to i32
  %44 = icmp eq i32 %43, 0
  br i1 %44, label %45, label %70

45:                                               ; preds = %38
  call void @llvm.lifetime.start.p0(i64 4, ptr %8) #7
  call void @llvm.lifetime.start.p0(i64 1, ptr %9) #7
  store i32 97, ptr %8, align 4, !tbaa !4
  %46 = load i32, ptr %8, align 4, !tbaa !4
  %47 = load i32, ptr %3, align 4, !tbaa !4
  %48 = call zeroext i8 @lean_uint32_dec_le(i32 noundef %46, i32 noundef %47)
  store i8 %48, ptr %9, align 1, !tbaa !14
  %49 = load i8, ptr %9, align 1, !tbaa !14
  %50 = zext i8 %49 to i32
  %51 = icmp eq i32 %50, 0
  br i1 %51, label %52, label %55

52:                                               ; preds = %45
  call void @llvm.lifetime.start.p0(i64 8, ptr %10) #7
  %53 = call ptr @lean_box(i64 noundef 0)
  store ptr %53, ptr %10, align 8, !tbaa !8
  %54 = load ptr, ptr %10, align 8, !tbaa !8
  store ptr %54, ptr %5, align 8, !tbaa !8
  store i32 3, ptr %11, align 4
  call void @llvm.lifetime.end.p0(i64 8, ptr %10) #7
  br label %68

55:                                               ; preds = %45
  call void @llvm.lifetime.start.p0(i64 4, ptr %12) #7
  call void @llvm.lifetime.start.p0(i64 1, ptr %13) #7
  store i32 122, ptr %12, align 4, !tbaa !4
  %56 = load i32, ptr %3, align 4, !tbaa !4
  %57 = load i32, ptr %12, align 4, !tbaa !4
  %58 = call zeroext i8 @lean_uint32_dec_le(i32 noundef %56, i32 noundef %57)
  store i8 %58, ptr %13, align 1, !tbaa !14
  %59 = load i8, ptr %13, align 1, !tbaa !14
  %60 = zext i8 %59 to i32
  %61 = icmp eq i32 %60, 0
  br i1 %61, label %62, label %65

62:                                               ; preds = %55
  call void @llvm.lifetime.start.p0(i64 8, ptr %14) #7
  %63 = call ptr @lean_box(i64 noundef 0)
  store ptr %63, ptr %14, align 8, !tbaa !8
  %64 = load ptr, ptr %14, align 8, !tbaa !8
  store ptr %64, ptr %5, align 8, !tbaa !8
  store i32 3, ptr %11, align 4
  call void @llvm.lifetime.end.p0(i64 8, ptr %14) #7
  br label %67

65:                                               ; preds = %55
  call void @llvm.lifetime.start.p0(i64 1, ptr %15) #7
  store i8 1, ptr %15, align 1, !tbaa !14
  %66 = load i8, ptr %15, align 1, !tbaa !14
  store i8 %66, ptr %2, align 1
  store i32 1, ptr %11, align 4
  call void @llvm.lifetime.end.p0(i64 1, ptr %15) #7
  br label %67

67:                                               ; preds = %65, %62
  call void @llvm.lifetime.end.p0(i64 1, ptr %13) #7
  call void @llvm.lifetime.end.p0(i64 4, ptr %12) #7
  br label %68

68:                                               ; preds = %67, %52
  call void @llvm.lifetime.end.p0(i64 1, ptr %9) #7
  call void @llvm.lifetime.end.p0(i64 4, ptr %8) #7
  %69 = load i32, ptr %11, align 4
  switch i32 %69, label %147 [
    i32 3, label %121
  ]

70:                                               ; preds = %38
  call void @llvm.lifetime.start.p0(i64 4, ptr %16) #7
  call void @llvm.lifetime.start.p0(i64 1, ptr %17) #7
  store i32 90, ptr %16, align 4, !tbaa !4
  %71 = load i32, ptr %3, align 4, !tbaa !4
  %72 = load i32, ptr %16, align 4, !tbaa !4
  %73 = call zeroext i8 @lean_uint32_dec_le(i32 noundef %71, i32 noundef %72)
  store i8 %73, ptr %17, align 1, !tbaa !14
  %74 = load i8, ptr %17, align 1, !tbaa !14
  %75 = zext i8 %74 to i32
  %76 = icmp eq i32 %75, 0
  br i1 %76, label %77, label %101

77:                                               ; preds = %70
  call void @llvm.lifetime.start.p0(i64 4, ptr %18) #7
  call void @llvm.lifetime.start.p0(i64 1, ptr %19) #7
  store i32 97, ptr %18, align 4, !tbaa !4
  %78 = load i32, ptr %18, align 4, !tbaa !4
  %79 = load i32, ptr %3, align 4, !tbaa !4
  %80 = call zeroext i8 @lean_uint32_dec_le(i32 noundef %78, i32 noundef %79)
  store i8 %80, ptr %19, align 1, !tbaa !14
  %81 = load i8, ptr %19, align 1, !tbaa !14
  %82 = zext i8 %81 to i32
  %83 = icmp eq i32 %82, 0
  br i1 %83, label %84, label %87

84:                                               ; preds = %77
  call void @llvm.lifetime.start.p0(i64 8, ptr %20) #7
  %85 = call ptr @lean_box(i64 noundef 0)
  store ptr %85, ptr %20, align 8, !tbaa !8
  %86 = load ptr, ptr %20, align 8, !tbaa !8
  store ptr %86, ptr %5, align 8, !tbaa !8
  store i32 3, ptr %11, align 4
  call void @llvm.lifetime.end.p0(i64 8, ptr %20) #7
  br label %100

87:                                               ; preds = %77
  call void @llvm.lifetime.start.p0(i64 4, ptr %21) #7
  call void @llvm.lifetime.start.p0(i64 1, ptr %22) #7
  store i32 122, ptr %21, align 4, !tbaa !4
  %88 = load i32, ptr %3, align 4, !tbaa !4
  %89 = load i32, ptr %21, align 4, !tbaa !4
  %90 = call zeroext i8 @lean_uint32_dec_le(i32 noundef %88, i32 noundef %89)
  store i8 %90, ptr %22, align 1, !tbaa !14
  %91 = load i8, ptr %22, align 1, !tbaa !14
  %92 = zext i8 %91 to i32
  %93 = icmp eq i32 %92, 0
  br i1 %93, label %94, label %97

94:                                               ; preds = %87
  call void @llvm.lifetime.start.p0(i64 8, ptr %23) #7
  %95 = call ptr @lean_box(i64 noundef 0)
  store ptr %95, ptr %23, align 8, !tbaa !8
  %96 = load ptr, ptr %23, align 8, !tbaa !8
  store ptr %96, ptr %5, align 8, !tbaa !8
  store i32 3, ptr %11, align 4
  call void @llvm.lifetime.end.p0(i64 8, ptr %23) #7
  br label %99

97:                                               ; preds = %87
  call void @llvm.lifetime.start.p0(i64 1, ptr %24) #7
  store i8 1, ptr %24, align 1, !tbaa !14
  %98 = load i8, ptr %24, align 1, !tbaa !14
  store i8 %98, ptr %2, align 1
  store i32 1, ptr %11, align 4
  call void @llvm.lifetime.end.p0(i64 1, ptr %24) #7
  br label %99

99:                                               ; preds = %97, %94
  call void @llvm.lifetime.end.p0(i64 1, ptr %22) #7
  call void @llvm.lifetime.end.p0(i64 4, ptr %21) #7
  br label %100

100:                                              ; preds = %99, %84
  call void @llvm.lifetime.end.p0(i64 1, ptr %19) #7
  call void @llvm.lifetime.end.p0(i64 4, ptr %18) #7
  br label %103

101:                                              ; preds = %70
  call void @llvm.lifetime.start.p0(i64 1, ptr %25) #7
  store i8 1, ptr %25, align 1, !tbaa !14
  %102 = load i8, ptr %25, align 1, !tbaa !14
  store i8 %102, ptr %2, align 1
  store i32 1, ptr %11, align 4
  call void @llvm.lifetime.end.p0(i64 1, ptr %25) #7
  br label %103

103:                                              ; preds = %101, %100
  call void @llvm.lifetime.end.p0(i64 1, ptr %17) #7
  call void @llvm.lifetime.end.p0(i64 4, ptr %16) #7
  %104 = load i32, ptr %11, align 4
  switch i32 %104, label %147 [
    i32 3, label %121
  ]

105:                                              ; preds = %145
  call void @llvm.lifetime.start.p0(i64 4, ptr %26) #7
  call void @llvm.lifetime.start.p0(i64 1, ptr %27) #7
  %106 = load ptr, ptr %4, align 8, !tbaa !8
  call void @lean_dec(ptr noundef %106)
  store i32 95, ptr %26, align 4, !tbaa !4
  %107 = load i32, ptr %3, align 4, !tbaa !4
  %108 = load i32, ptr %26, align 4, !tbaa !4
  %109 = call zeroext i8 @lean_uint32_dec_eq(i32 noundef %107, i32 noundef %108)
  store i8 %109, ptr %27, align 1, !tbaa !14
  %110 = load i8, ptr %27, align 1, !tbaa !14
  %111 = zext i8 %110 to i32
  %112 = icmp eq i32 %111, 0
  br i1 %112, label %113, label %118

113:                                              ; preds = %105
  call void @llvm.lifetime.start.p0(i64 4, ptr %28) #7
  call void @llvm.lifetime.start.p0(i64 1, ptr %29) #7
  store i32 45, ptr %28, align 4, !tbaa !4
  %114 = load i32, ptr %3, align 4, !tbaa !4
  %115 = load i32, ptr %28, align 4, !tbaa !4
  %116 = call zeroext i8 @lean_uint32_dec_eq(i32 noundef %114, i32 noundef %115)
  store i8 %116, ptr %29, align 1, !tbaa !14
  %117 = load i8, ptr %29, align 1, !tbaa !14
  store i8 %117, ptr %2, align 1
  store i32 1, ptr %11, align 4
  call void @llvm.lifetime.end.p0(i64 1, ptr %29) #7
  call void @llvm.lifetime.end.p0(i64 4, ptr %28) #7
  br label %120

118:                                              ; preds = %105
  call void @llvm.lifetime.start.p0(i64 1, ptr %30) #7
  store i8 1, ptr %30, align 1, !tbaa !14
  %119 = load i8, ptr %30, align 1, !tbaa !14
  store i8 %119, ptr %2, align 1
  store i32 1, ptr %11, align 4
  call void @llvm.lifetime.end.p0(i64 1, ptr %30) #7
  br label %120

120:                                              ; preds = %118, %113
  call void @llvm.lifetime.end.p0(i64 1, ptr %27) #7
  call void @llvm.lifetime.end.p0(i64 4, ptr %26) #7
  br label %147

121:                                              ; preds = %103, %68
  call void @llvm.lifetime.start.p0(i64 4, ptr %31) #7
  call void @llvm.lifetime.start.p0(i64 1, ptr %32) #7
  %122 = load ptr, ptr %5, align 8, !tbaa !8
  call void @lean_dec(ptr noundef %122)
  store i32 48, ptr %31, align 4, !tbaa !4
  %123 = load i32, ptr %31, align 4, !tbaa !4
  %124 = load i32, ptr %3, align 4, !tbaa !4
  %125 = call zeroext i8 @lean_uint32_dec_le(i32 noundef %123, i32 noundef %124)
  store i8 %125, ptr %32, align 1, !tbaa !14
  %126 = load i8, ptr %32, align 1, !tbaa !14
  %127 = zext i8 %126 to i32
  %128 = icmp eq i32 %127, 0
  br i1 %128, label %129, label %132

129:                                              ; preds = %121
  call void @llvm.lifetime.start.p0(i64 8, ptr %33) #7
  %130 = call ptr @lean_box(i64 noundef 0)
  store ptr %130, ptr %33, align 8, !tbaa !8
  %131 = load ptr, ptr %33, align 8, !tbaa !8
  store ptr %131, ptr %4, align 8, !tbaa !8
  store i32 4, ptr %11, align 4
  call void @llvm.lifetime.end.p0(i64 8, ptr %33) #7
  br label %145

132:                                              ; preds = %121
  call void @llvm.lifetime.start.p0(i64 4, ptr %34) #7
  call void @llvm.lifetime.start.p0(i64 1, ptr %35) #7
  store i32 57, ptr %34, align 4, !tbaa !4
  %133 = load i32, ptr %3, align 4, !tbaa !4
  %134 = load i32, ptr %34, align 4, !tbaa !4
  %135 = call zeroext i8 @lean_uint32_dec_le(i32 noundef %133, i32 noundef %134)
  store i8 %135, ptr %35, align 1, !tbaa !14
  %136 = load i8, ptr %35, align 1, !tbaa !14
  %137 = zext i8 %136 to i32
  %138 = icmp eq i32 %137, 0
  br i1 %138, label %139, label %142

139:                                              ; preds = %132
  call void @llvm.lifetime.start.p0(i64 8, ptr %36) #7
  %140 = call ptr @lean_box(i64 noundef 0)
  store ptr %140, ptr %36, align 8, !tbaa !8
  %141 = load ptr, ptr %36, align 8, !tbaa !8
  store ptr %141, ptr %4, align 8, !tbaa !8
  store i32 4, ptr %11, align 4
  call void @llvm.lifetime.end.p0(i64 8, ptr %36) #7
  br label %144

142:                                              ; preds = %132
  call void @llvm.lifetime.start.p0(i64 1, ptr %37) #7
  store i8 1, ptr %37, align 1, !tbaa !14
  %143 = load i8, ptr %37, align 1, !tbaa !14
  store i8 %143, ptr %2, align 1
  store i32 1, ptr %11, align 4
  call void @llvm.lifetime.end.p0(i64 1, ptr %37) #7
  br label %144

144:                                              ; preds = %142, %139
  call void @llvm.lifetime.end.p0(i64 1, ptr %35) #7
  call void @llvm.lifetime.end.p0(i64 4, ptr %34) #7
  br label %145

145:                                              ; preds = %144, %129
  call void @llvm.lifetime.end.p0(i64 1, ptr %32) #7
  call void @llvm.lifetime.end.p0(i64 4, ptr %31) #7
  %146 = load i32, ptr %11, align 4
  switch i32 %146, label %147 [
    i32 4, label %105
  ]

147:                                              ; preds = %145, %103, %68, %120
  call void @llvm.lifetime.end.p0(i64 1, ptr %7) #7
  call void @llvm.lifetime.end.p0(i64 4, ptr %6) #7
  call void @llvm.lifetime.end.p0(i64 8, ptr %5) #7
  call void @llvm.lifetime.end.p0(i64 8, ptr %4) #7
  %148 = load i8, ptr %2, align 1
  ret i8 %148
}